target datalayout = "e-m:e-p270:32:32-p271:32:32-p272:64:64-i64:64-i128:128-f80:128-n8:16:32:64-S128"
target triple = "x86_64-pc-linux-gnu"

%struct.cipherlist_test_fixture = type { ptr, ptr, ptr }

@.str.1 = private unnamed_addr constant [33 x i8] c"test_default_cipherlist_explicit\00", align 1
@.str.4 = private unnamed_addr constant [34 x i8] c"../openssl/test/cipherlist_test.c\00", align 1
@.str.15 = private unnamed_addr constant [52 x i8] c"SSL_CTX_set_cipher_list(fixture->server, \22DEFAULT\22)\00", align 1
@.str.16 = private unnamed_addr constant [8 x i8] c"DEFAULT\00", align 1
@.str.17 = private unnamed_addr constant [52 x i8] c"SSL_CTX_set_cipher_list(fixture->client, \22DEFAULT\22)\00", align 1

; Function Attrs: nounwind uwtable
define internal i32 @execute_test(ptr noundef %0) #0 {
  %2 = alloca ptr, align 8
  store ptr %0, ptr %2, align 8, !tbaa !4
  %3 = load ptr, ptr %2, align 8, !tbaa !4
  %4 = icmp ne ptr %3, null
  br i1 %4, label %5, label %17

5:                                                ; preds = %1
  %6 = load ptr, ptr %2, align 8, !tbaa !4
  %7 = getelementptr inbounds nuw %struct.cipherlist_test_fixture, ptr %6, i32 0, i32 1
  %8 = load ptr, ptr %7, align 8, !tbaa !11
  %9 = call i32 @test_default_cipherlist(ptr noundef %8)
  %10 = icmp ne i32 %9, 0
  br i1 %10, label %11, label %17

11:                                               ; preds = %5
  %12 = load ptr, ptr %2, align 8, !tbaa !4
  %13 = getelementptr inbounds nuw %struct.cipherlist_test_fixture, ptr %12, i32 0, i32 2
  %14 = load ptr, ptr %13, align 8, !tbaa !15
  %15 = call i32 @test_default_cipherlist(ptr noundef %14)
  %16 = icmp ne i32 %15, 0
  br label %17

17:                                               ; preds = %11, %5, %1
  %18 = phi i1 [ false, %5 ], [ false, %1 ], [ %16, %11 ]
  %19 = zext i1 %18 to i32
  ret i32 %19
}

; Function Attrs: nounwind uwtable
define internal void @tear_down(ptr noundef %0) #0 {
  %2 = alloca ptr, align 8
  store ptr %0, ptr %2, align 8, !tbaa !4
  %3 = load ptr, ptr %2, align 8, !tbaa !4
  %4 = icmp ne ptr %3, null
  br i1 %4, label %5, label %17

5:                                                ; preds = %1
  %6 = load ptr, ptr %2, align 8, !tbaa !4
  %7 = getelementptr inbounds nuw %struct.cipherlist_test_fixture, ptr %6, i32 0, i32 1
  %8 = load ptr, ptr %7, align 8, !tbaa !11
  call void @SSL_CTX_free(ptr noundef %8)
  %9 = load ptr, ptr %2, align 8, !tbaa !4
  %10 = getelementptr inbounds nuw %struct.cipherlist_test_fixture, ptr %9, i32 0, i32 2
  %11 = load ptr, ptr %10, align 8, !tbaa !15
  call void @SSL_CTX_free(ptr noundef %11)
  %12 = load ptr, ptr %2, align 8, !tbaa !4
  %13 = getelementptr inbounds nuw %struct.cipherlist_test_fixture, ptr %12, i32 0, i32 2
  store ptr null, ptr %13, align 8, !tbaa !15
  %14 = load ptr, ptr %2, align 8, !tbaa !4
  %15 = getelementptr inbounds nuw %struct.cipherlist_test_fixture, ptr %14, i32 0, i32 1
  store ptr null, ptr %15, align 8, !tbaa !11
  %16 = load ptr, ptr %2, align 8, !tbaa !4
  call void @CRYPTO_free(ptr noundef %16, ptr noundef @.str.4, i32 noundef 37)
  br label %17

17:                                               ; preds = %5, %1
  ret void
}

; Function Attrs: nounwind uwtable
define internal i32 @test_default_cipherlist_explicit() #0 {
  %1 = alloca i32, align 4
  %2 = alloca ptr, align 8
  %3 = alloca i32, align 4
  %4 = alloca i32, align 4
  call void @llvm.lifetime.start.p0(i64 8, ptr %2) #4
  %5 = call ptr @set_up(ptr noundef @.str.1)
  store ptr %5, ptr %2, align 8, !tbaa !4
  call void @llvm.lifetime.start.p0(i64 4, ptr %3) #4
  store i32 0, ptr %3, align 4, !tbaa !9
  %6 = load ptr, ptr %2, align 8, !tbaa !4
  %7 = icmp eq ptr %6, null
  br i1 %7, label %8, label %9

8:                                                ; preds = %0
  store i32 0, ptr %1, align 4
  store i32 1, ptr %4, align 4
  br label %38

9:                                                ; preds = %0
  %10 = load ptr, ptr %2, align 8, !tbaa !4
  %11 = getelementptr inbounds nuw %struct.cipherlist_test_fixture, ptr %10, i32 0, i32 1
  %12 = load ptr, ptr %11, align 8, !tbaa !11
  %13 = call i32 @SSL_CTX_set_cipher_list(ptr noundef %12, ptr noundef @.str.16)
  %14 = icmp ne i32 %13, 0
  %15 = zext i1 %14 to i32
  %16 = call i32 @test_true(ptr noundef @.str.4, i32 noundef 207, ptr noundef @.str.15, i32 noundef %15)
  %17 = icmp ne i32 %16, 0
  br i1 %17, label %18, label %27

18:                                               ; preds = %9
  %19 = load ptr, ptr %2, align 8, !tbaa !4
  %20 = getelementptr inbounds nuw %struct.cipherlist_test_fixture, ptr %19, i32 0, i32 2
  %21 = load ptr, ptr %20, align 8, !tbaa !15
  %22 = call i32 @SSL_CTX_set_cipher_list(ptr noundef %21, ptr noundef @.str.16)
  %23 = icmp ne i32 %22, 0
  %24 = zext i1 %23 to i32
  %25 = call i32 @test_true(ptr noundef @.str.4, i32 noundef 208, ptr noundef @.str.17, i32 noundef %24)
  %26 = icmp ne i32 %25, 0
  br i1 %26, label %29, label %27

27:                                               ; preds = %18, %9
  %28 = load ptr, ptr %2, align 8, !tbaa !4
  call void @tear_down(ptr noundef %28)
  store ptr null, ptr %2, align 8, !tbaa !4
  br label %29

29:                                               ; preds = %27, %18
  %30 = load ptr, ptr %2, align 8, !tbaa !4
  %31 = icmp ne ptr %30, null
  br i1 %31, label %32, label %36

32:                                               ; preds = %29
  %33 = load ptr, ptr %2, align 8, !tbaa !4
  %34 = call i32 @execute_test(ptr noundef %33)
  store i32 %34, ptr %3, align 4, !tbaa !9
  %35 = load ptr, ptr %2, align 8, !tbaa !4
  call void @tear_down(ptr noundef %35)
  br label %36

36:                                               ; preds = %32, %29
  %37 = load i32, ptr %3, align 4, !tbaa !9
  store i32 %37, ptr %1, align 4
  store i32 1, ptr %4, align 4
  br label %38

38:                                               ; preds = %36, %8
  call void @llvm.lifetime.end.p0(i64 4, ptr %3) #4
  call void @llvm.lifetime.end.p0(i64 8, ptr %2) #4
  %39 = load i32, ptr %1, align 4
  ret i32 %39
}