; Function Attrs: nounwind uwtable
define internal range(i32 0, 2) i32 @test_default_cipherlist_explicit() #0 {
  %1 = tail call fastcc ptr @set_up(ptr noundef nonnull @.str.1)
  %2 = icmp eq ptr %1, null
  br i1 %2, label %27, label %3

3:                                                ; preds = %0
  %4 = getelementptr inbounds nuw i8, ptr %1, i64 8
  %5 = load ptr, ptr %4, align 8, !tbaa !4
  %6 = tail call i32 @SSL_CTX_set_cipher_list(ptr noundef %5, ptr noundef nonnull @.str.16) #3
  %7 = icmp ne i32 %6, 0
  %8 = zext i1 %7 to i32
  %9 = tail call i32 @test_true(ptr noundef nonnull @.str.4, i32 noundef 207, ptr noundef nonnull @.str.15, i32 noundef %8) #3
  %.not = icmp eq i32 %9, 0
  br i1 %.not, label %.thread, label %10

10:                                               ; preds = %3
  %11 = getelementptr inbounds nuw i8, ptr %1, i64 16
  %12 = load ptr, ptr %11, align 8, !tbaa !11
  %13 = tail call i32 @SSL_CTX_set_cipher_list(ptr noundef %12, ptr noundef nonnull @.str.16) #3
  %14 = icmp ne i32 %13, 0
  %15 = zext i1 %14 to i32
  %16 = tail call i32 @test_true(ptr noundef nonnull @.str.4, i32 noundef 208, ptr noundef nonnull @.str.17, i32 noundef %15) #3
  %.not11 = icmp eq i32 %16, 0
  br i1 %.not11, label %.thread, label %19

.thread:                                          ; preds = %3, %10
  %17 = load ptr, ptr %4, align 8, !tbaa !4
  tail call void @SSL_CTX_free(ptr noundef %17) #3
  %18 = getelementptr inbounds nuw i8, ptr %1, i64 16
  br label %.sink.split

19:                                               ; preds = %10
  %20 = load ptr, ptr %4, align 8, !tbaa !4
  %21 = tail call fastcc i32 @test_default_cipherlist(ptr noundef %20)
  %.not.i13 = icmp eq i32 %21, 0
  br i1 %.not.i13, label %tear_down.exit15, label %22

22:                                               ; preds = %19
  %23 = load ptr, ptr %11, align 8, !tbaa !11
  %24 = tail call fastcc i32 @test_default_cipherlist(ptr noundef %23)
  br label %tear_down.exit15

tear_down.exit15:                                 ; preds = %19, %22
  %25 = phi i32 [ 0, %19 ], [ %24, %22 ]
  %26 = load ptr, ptr %4, align 8, !tbaa !4
  tail call void @SSL_CTX_free(ptr noundef %26) #3
  br label %.sink.split

.sink.split:                                      ; preds = %tear_down.exit15, %.thread
  %.sink.in = phi ptr [ %18, %.thread ], [ %11, %tear_down.exit15 ]
  %.09.ph = phi i32 [ 0, %.thread ], [ %25, %tear_down.exit15 ]
  %.sink = load ptr, ptr %.sink.in, align 8, !tbaa !11
  tail call void @SSL_CTX_free(ptr noundef %.sink) #3
  tail call void @llvm.memset.p0.i64(ptr noundef nonnull align 8 dereferenceable(16) %4, i8 0, i64 16, i1 false)
  tail call void @CRYPTO_free(ptr noundef nonnull %1, ptr noundef nonnull @.str.4, i32 noundef 37) #3
  br label %27

27:                                               ; preds = %.sink.split, %0
  %.09 = phi i32 [ 0, %0 ], [ %.09.ph, %.sink.split ]
  ret i32 %.09
}